; Function Attrs: mustprogress nofree norecurse nosync nounwind willreturn memory(argmem: readwrite) uwtable
define hidden void @_ZN19OpenColorIO_v2_4dev18CTFReaderTransform13setCLFVersionERKNS_10CTFVersionE(ptr noundef nonnull writeonly align 8 dereferenceable(356) %this, ptr noundef nonnull readonly align 4 dereferenceable(12) %ver) local_unnamed_addr #6 align 2 {
entry:
  %m_versionCLF = getelementptr inbounds i8, ptr %this, i64 340
  %cmp.not.i = icmp eq ptr %m_versionCLF, %ver
  br i1 %cmp.not.i, label %_ZN19OpenColorIO_v2_4dev10CTFVersionaSERKS0_.exit, label %if.then.i

if.then.i:                                        ; preds = %entry
  %0 = load i32, ptr %ver, align 4
  store i32 %0, ptr %m_versionCLF, align 4
  %m_minor.i = getelementptr inbounds i8, ptr %ver, i64 4
  %1 = load i32, ptr %m_minor.i, align 4
  %m_minor3.i = getelementptr inbounds i8, ptr %this, i64 344
  store i32 %1, ptr %m_minor3.i, align 8
  %m_revision.i = getelementptr inbounds i8, ptr %ver, i64 8
  %2 = load i32, ptr %m_revision.i, align 4
  %m_revision4.i = getelementptr inbounds i8, ptr %this, i64 348
  store i32 %2, ptr %m_revision4.i, align 4
  br label %_ZN19OpenColorIO_v2_4dev10CTFVersionaSERKS0_.exit

_ZN19OpenColorIO_v2_4dev10CTFVersionaSERKS0_.exit: ; preds = %entry, %if.then.i
  ret void
}